; Function Attrs: mustprogress nofree norecurse nosync nounwind willreturn memory(read, inaccessiblemem: none) uwtable
define noundef zeroext i1 @_ZNK6Gluco26Solver9satisfiedERKNS_6ClauseE(ptr nocapture noundef nonnull readonly align 8 dereferenceable(1416) %0, ptr nocapture noundef nonnull readonly align 4 dereferenceable(12) %1) local_unnamed_addr #9 align 2 {
  %3 = getelementptr inbounds i8, ptr %0, i64 1148
  %4 = load i32, ptr %3, align 4
  %.not = icmp eq i32 %4, 0
  %5 = getelementptr inbounds i8, ptr %1, i64 12
  br i1 %.not, label %.preheader, label %13

.preheader:                                       ; preds = %2
  %6 = load i96, ptr %1, align 4
  %7 = lshr i96 %6, 32
  %8 = trunc i96 %7 to i32
  %9 = icmp sgt i32 %8, 0
  br i1 %9, label %.lr.ph, label %.loopexit

.lr.ph:                                           ; preds = %.preheader
  %10 = getelementptr inbounds i8, ptr %0, i64 632
  %11 = load ptr, ptr %10, align 8
  %12 = trunc i96 %7 to i64
  %wide.trip.count = and i64 %12, 2147483647
  br label %32

13:                                               ; preds = %2
  %.sroa.0.0.copyload.i = load i32, ptr %5, align 4
  %14 = getelementptr inbounds i8, ptr %0, i64 632
  %15 = ashr i32 %.sroa.0.0.copyload.i, 1
  %16 = load ptr, ptr %14, align 8
  %17 = sext i32 %15 to i64
  %18 = getelementptr inbounds %"class.Gluco2::lbool", ptr %16, i64 %17
  %19 = load i8, ptr %18, align 1
  %20 = trunc i32 %.sroa.0.0.copyload.i to i8
  %21 = and i8 %20, 1
  %22 = icmp eq i8 %19, %21
  br i1 %22, label %.loopexit, label %23

23:                                               ; preds = %13
  %24 = getelementptr inbounds i8, ptr %1, i64 16
  %.sroa.0.0.copyload.i11 = load i32, ptr %24, align 4
  %25 = ashr i32 %.sroa.0.0.copyload.i11, 1
  %26 = sext i32 %25 to i64
  %27 = getelementptr inbounds %"class.Gluco2::lbool", ptr %16, i64 %26
  %28 = load i8, ptr %27, align 1
  %29 = trunc i32 %.sroa.0.0.copyload.i11 to i8
  %30 = and i8 %29, 1
  %31 = icmp eq i8 %28, %30
  br label %.loopexit

32:                                               ; preds = %32, %.lr.ph
  %indvars.iv = phi i64 [ 0, %.lr.ph ], [ %indvars.iv.next, %32 ]
  %33 = getelementptr inbounds [0 x %union.anon], ptr %5, i64 0, i64 %indvars.iv
  %.sroa.0.0.copyload.i12 = load i32, ptr %33, align 4
  %34 = ashr i32 %.sroa.0.0.copyload.i12, 1
  %35 = sext i32 %34 to i64
  %36 = getelementptr inbounds %"class.Gluco2::lbool", ptr %11, i64 %35
  %37 = load i8, ptr %36, align 1
  %38 = trunc i32 %.sroa.0.0.copyload.i12 to i8
  %39 = and i8 %38, 1
  %40 = icmp eq i8 %37, %39
  %indvars.iv.next = add nuw nsw i64 %indvars.iv, 1
  %exitcond.not = icmp eq i64 %indvars.iv.next, %wide.trip.count
  %or.cond = select i1 %40, i1 true, i1 %exitcond.not
  br i1 %or.cond, label %.loopexit, label %32, !llvm.loop !28

.loopexit:                                        ; preds = %32, %.preheader, %13, %23
  %.0 = phi i1 [ true, %13 ], [ %31, %23 ], [ false, %.preheader ], [ %40, %32 ]
  ret i1 %.0
}